target datalayout = "e-m:e-p270:32:32-p271:32:32-p272:64:64-i64:64-i128:128-f80:128-n8:16:32:64-S128"
target triple = "x86_64-pc-linux-gnu"

%struct.psa_key_attributes_s = type { i16, i16, i32, %struct.psa_key_policy_s, i32 }
%struct.psa_key_policy_s = type { i32, i32, i32 }

; Function Attrs: nounwind uwtable
define hidden i32 @mbedtls_psa_rsa_export_key(i16 noundef zeroext %0, ptr noundef %1, ptr noundef %2, i64 noundef %3, ptr noundef %4) #0 {
  %6 = alloca i32, align 4
  %7 = alloca i16, align 2
  %8 = alloca ptr, align 8
  %9 = alloca ptr, align 8
  %10 = alloca i64, align 8
  %11 = alloca ptr, align 8
  %12 = alloca i32, align 4
  %13 = alloca ptr, align 8
  %14 = alloca i32, align 4
  store i16 %0, ptr %7, align 2, !tbaa !3
  store ptr %1, ptr %8, align 8, !tbaa !15
  store ptr %2, ptr %9, align 8, !tbaa !7
  store i64 %3, ptr %10, align 8, !tbaa !10
  store ptr %4, ptr %11, align 8, !tbaa !21
  call void @llvm.lifetime.start.p0(i64 4, ptr %12) #8
  call void @llvm.lifetime.start.p0(i64 8, ptr %13) #8
  %15 = load ptr, ptr %9, align 8, !tbaa !7
  %16 = load i64, ptr %10, align 8, !tbaa !10
  %17 = getelementptr inbounds nuw i8, ptr %15, i64 %16
  store ptr %17, ptr %13, align 8, !tbaa !7
  %18 = load i16, ptr %7, align 2, !tbaa !3
  %19 = zext i16 %18 to i32
  %20 = and i32 %19, 28672
  %21 = icmp eq i32 %20, 28672
  br i1 %21, label %22, label %26

22:                                               ; preds = %5
  %23 = load ptr, ptr %8, align 8, !tbaa !15
  %24 = load ptr, ptr %9, align 8, !tbaa !7
  %25 = call i32 @mbedtls_rsa_write_key(ptr noundef %23, ptr noundef %24, ptr noundef %13)
  store i32 %25, ptr %12, align 4, !tbaa !17
  br label %30

26:                                               ; preds = %5
  %27 = load ptr, ptr %8, align 8, !tbaa !15
  %28 = load ptr, ptr %9, align 8, !tbaa !7
  %29 = call i32 @mbedtls_rsa_write_pubkey(ptr noundef %27, ptr noundef %28, ptr noundef %13)
  store i32 %29, ptr %12, align 4, !tbaa !17
  br label %30

30:                                               ; preds = %26, %22
  %31 = load i32, ptr %12, align 4, !tbaa !17
  %32 = icmp slt i32 %31, 0
  br i1 %32, label %33, label %38

33:                                               ; preds = %30
  %34 = load ptr, ptr %9, align 8, !tbaa !7
  %35 = load i64, ptr %10, align 8, !tbaa !10
  call void @llvm.memset.p0.i64(ptr align 1 %34, i8 0, i64 %35, i1 false)
  %36 = load i32, ptr %12, align 4, !tbaa !17
  %37 = call i32 @mbedtls_to_psa_error(i32 noundef %36)
  store i32 %37, ptr %6, align 4
  store i32 1, ptr %14, align 4
  br label %93

38:                                               ; preds = %30
  %39 = load i32, ptr %12, align 4, !tbaa !17
  %40 = sext i32 %39 to i64
  %41 = mul i64 2, %40
  %42 = load i64, ptr %10, align 8, !tbaa !10
  %43 = icmp ule i64 %41, %42
  br i1 %43, label %44, label %64

44:                                               ; preds = %38
  %45 = load ptr, ptr %9, align 8, !tbaa !7
  %46 = load ptr, ptr %9, align 8, !tbaa !7
  %47 = load i64, ptr %10, align 8, !tbaa !10
  %48 = getelementptr inbounds nuw i8, ptr %46, i64 %47
  %49 = load i32, ptr %12, align 4, !tbaa !17
  %50 = sext i32 %49 to i64
  %51 = sub i64 0, %50
  %52 = getelementptr inbounds i8, ptr %48, i64 %51
  %53 = load i32, ptr %12, align 4, !tbaa !17
  %54 = sext i32 %53 to i64
  call void @llvm.memcpy.p0.p0.i64(ptr align 1 %45, ptr align 1 %52, i64 %54, i1 false)
  %55 = load ptr, ptr %9, align 8, !tbaa !7
  %56 = load i64, ptr %10, align 8, !tbaa !10
  %57 = getelementptr inbounds nuw i8, ptr %55, i64 %56
  %58 = load i32, ptr %12, align 4, !tbaa !17
  %59 = sext i32 %58 to i64
  %60 = sub i64 0, %59
  %61 = getelementptr inbounds i8, ptr %57, i64 %60
  %62 = load i32, ptr %12, align 4, !tbaa !17
  %63 = sext i32 %62 to i64
  call void @llvm.memset.p0.i64(ptr align 1 %61, i8 0, i64 %63, i1 false)
  br label %89

64:                                               ; preds = %38
  %65 = load i32, ptr %12, align 4, !tbaa !17
  %66 = sext i32 %65 to i64
  %67 = load i64, ptr %10, align 8, !tbaa !10
  %68 = icmp ult i64 %66, %67
  br i1 %68, label %69, label %88

69:                                               ; preds = %64
  %70 = load ptr, ptr %9, align 8, !tbaa !7
  %71 = load ptr, ptr %9, align 8, !tbaa !7
  %72 = load i64, ptr %10, align 8, !tbaa !10
  %73 = getelementptr inbounds nuw i8, ptr %71, i64 %72
  %74 = load i32, ptr %12, align 4, !tbaa !17
  %75 = sext i32 %74 to i64
  %76 = sub i64 0, %75
  %77 = getelementptr inbounds i8, ptr %73, i64 %76
  %78 = load i32, ptr %12, align 4, !tbaa !17
  %79 = sext i32 %78 to i64
  call void @llvm.memmove.p0.p0.i64(ptr align 1 %70, ptr align 1 %77, i64 %79, i1 false)
  %80 = load ptr, ptr %9, align 8, !tbaa !7
  %81 = load i32, ptr %12, align 4, !tbaa !17
  %82 = sext i32 %81 to i64
  %83 = getelementptr inbounds i8, ptr %80, i64 %82
  %84 = load i64, ptr %10, align 8, !tbaa !10
  %85 = load i32, ptr %12, align 4, !tbaa !17
  %86 = sext i32 %85 to i64
  %87 = sub i64 %84, %86
  call void @llvm.memset.p0.i64(ptr align 1 %83, i8 0, i64 %87, i1 false)
  br label %88

88:                                               ; preds = %69, %64
  br label %89

89:                                               ; preds = %88, %44
  %90 = load i32, ptr %12, align 4, !tbaa !17
  %91 = sext i32 %90 to i64
  %92 = load ptr, ptr %11, align 8, !tbaa !21
  store i64 %91, ptr %92, align 8, !tbaa !10
  store i32 0, ptr %6, align 4
  store i32 1, ptr %14, align 4
  br label %93

93:                                               ; preds = %89, %33
  call void @llvm.lifetime.end.p0(i64 8, ptr %13) #8
  call void @llvm.lifetime.end.p0(i64 4, ptr %12) #8
  %94 = load i32, ptr %6, align 4
  ret i32 %94
}

; Function Attrs: nounwind uwtable
define hidden i32 @mbedtls_psa_rsa_export_public_key(ptr noundef %0, ptr noundef %1, i64 noundef %2, ptr noundef %3, i64 noundef %4, ptr noundef %5) #0 {
  %7 = alloca ptr, align 8
  %8 = alloca ptr, align 8
  %9 = alloca i64, align 8
  %10 = alloca ptr, align 8
  %11 = alloca i64, align 8
  %12 = alloca ptr, align 8
  %13 = alloca i32, align 4
  %14 = alloca ptr, align 8
  store ptr %0, ptr %7, align 8, !tbaa !19
  store ptr %1, ptr %8, align 8, !tbaa !7
  store i64 %2, ptr %9, align 8, !tbaa !10
  store ptr %3, ptr %10, align 8, !tbaa !7
  store i64 %4, ptr %11, align 8, !tbaa !10
  store ptr %5, ptr %12, align 8, !tbaa !21
  call void @llvm.lifetime.start.p0(i64 4, ptr %13) #8
  store i32 -151, ptr %13, align 4, !tbaa !17
  call void @llvm.lifetime.start.p0(i64 8, ptr %14) #8
  store ptr null, ptr %14, align 8, !tbaa !15
  %15 = load ptr, ptr %7, align 8, !tbaa !19
  %16 = getelementptr inbounds nuw %struct.psa_key_attributes_s, ptr %15, i32 0, i32 0
  %17 = load i16, ptr %16, align 4, !tbaa !23
  %18 = load ptr, ptr %8, align 8, !tbaa !7
  %19 = load i64, ptr %9, align 8, !tbaa !10
  %20 = call i32 @mbedtls_psa_rsa_load_representation(i16 noundef zeroext %17, ptr noundef %18, i64 noundef %19, ptr noundef %14)
  store i32 %20, ptr %13, align 4, !tbaa !17
  %21 = load i32, ptr %13, align 4, !tbaa !17
  %22 = icmp eq i32 %21, 0
  br i1 %22, label %23, label %29

23:                                               ; preds = %6
  %24 = load ptr, ptr %14, align 8, !tbaa !15
  %25 = load ptr, ptr %10, align 8, !tbaa !7
  %26 = load i64, ptr %11, align 8, !tbaa !10
  %27 = load ptr, ptr %12, align 8, !tbaa !21
  %28 = call i32 @mbedtls_psa_rsa_export_key(i16 noundef zeroext 16385, ptr noundef %24, ptr noundef %25, i64 noundef %26, ptr noundef %27)
  store i32 %28, ptr %13, align 4, !tbaa !17
  br label %29

29:                                               ; preds = %23, %6
  %30 = load ptr, ptr %14, align 8, !tbaa !15
  call void @mbedtls_rsa_free(ptr noundef %30)
  %31 = load ptr, ptr %14, align 8, !tbaa !15
  call void @free(ptr noundef %31) #8
  %32 = load i32, ptr %13, align 4, !tbaa !17
  call void @llvm.lifetime.end.p0(i64 8, ptr %14) #8
  call void @llvm.lifetime.end.p0(i64 4, ptr %13) #8
  ret i32 %32
}