; Function Attrs: nounwind uwtable
define hidden i32 @mbedtls_psa_rsa_export_public_key(ptr noundef readonly captures(none) %0, ptr noundef %1, i64 noundef %2, ptr noundef %3, i64 noundef %4, ptr noundef writeonly captures(none) %5) local_unnamed_addr #0 {
  %7 = alloca ptr, align 8
  %8 = alloca ptr, align 8
  call void @llvm.lifetime.start.p0(i64 8, ptr nonnull %8) #9
  %9 = load i16, ptr %0, align 4, !tbaa !8
  %10 = call i32 @mbedtls_psa_rsa_load_representation(i16 noundef zeroext %9, ptr noundef %1, i64 noundef %2, ptr noundef nonnull %8)
  %11 = icmp eq i32 %10, 0
  %.pre = load ptr, ptr %8, align 8, !tbaa !3
  br i1 %11, label %12, label %32

12:                                               ; preds = %6
  call void @llvm.lifetime.start.p0(i64 8, ptr nonnull %7) #9
  %13 = getelementptr inbounds nuw i8, ptr %3, i64 %4
  store ptr %13, ptr %7, align 8, !tbaa !15
  %14 = call i32 @mbedtls_rsa_write_pubkey(ptr noundef %.pre, ptr noundef %3, ptr noundef nonnull %7) #9
  %15 = icmp slt i32 %14, 0
  br i1 %15, label %16, label %18

16:                                               ; preds = %12
  call void @llvm.memset.p0.i64(ptr align 1 %3, i8 0, i64 %4, i1 false)
  %17 = call i32 @mbedtls_to_psa_error(i32 noundef %14) #9
  br label %mbedtls_psa_rsa_export_key.exit

18:                                               ; preds = %12
  %19 = zext nneg i32 %14 to i64
  %20 = shl nuw nsw i64 %19, 1
  %.not.i = icmp ugt i64 %20, %4
  br i1 %.not.i, label %24, label %21

21:                                               ; preds = %18
  %22 = sub nsw i64 0, %19
  %23 = getelementptr inbounds i8, ptr %13, i64 %22
  call void @llvm.memcpy.p0.p0.i64(ptr align 1 %3, ptr align 1 %23, i64 %19, i1 false)
  call void @llvm.memset.p0.i64(ptr align 1 %23, i8 0, i64 %19, i1 false)
  br label %31

24:                                               ; preds = %18
  %25 = icmp samesign ugt i64 %4, %19
  br i1 %25, label %26, label %31

26:                                               ; preds = %24
  %27 = sub nsw i64 0, %19
  %28 = getelementptr inbounds i8, ptr %13, i64 %27
  call void @llvm.memmove.p0.p0.i64(ptr align 1 %3, ptr nonnull align 1 %28, i64 %19, i1 false)
  %29 = getelementptr inbounds nuw i8, ptr %3, i64 %19
  %30 = sub nuw nsw i64 %4, %19
  call void @llvm.memset.p0.i64(ptr align 1 %29, i8 0, i64 %30, i1 false)
  br label %31

31:                                               ; preds = %26, %24, %21
  store i64 %19, ptr %5, align 8, !tbaa !13
  br label %mbedtls_psa_rsa_export_key.exit

mbedtls_psa_rsa_export_key.exit:                  ; preds = %16, %31
  %.035.i = phi i32 [ %17, %16 ], [ 0, %31 ]
  call void @llvm.lifetime.end.p0(i64 8, ptr nonnull %7) #9
  br label %32

32:                                               ; preds = %mbedtls_psa_rsa_export_key.exit, %6
  %.0 = phi i32 [ %.035.i, %mbedtls_psa_rsa_export_key.exit ], [ %10, %6 ]
  call void @mbedtls_rsa_free(ptr noundef %.pre) #9
  call void @free(ptr noundef %.pre) #9
  call void @llvm.lifetime.end.p0(i64 8, ptr nonnull %8) #9
  ret i32 %.0
}